; Function Attrs: mustprogress uwtable
define hidden void @_ZN4cvc58internal6theory11quantifiers5ieval5State16setEvaluatorModeENS3_17TermEvaluatorModeE(ptr noundef nonnull align 8 captures(none) dereferenceable(424) initializes((40, 44)) %0, i32 noundef %1) local_unnamed_addr #3 align 2 personality ptr @__gxx_personality_v0 {
  %3 = getelementptr inbounds nuw i8, ptr %0, i64 40
  store i32 %1, ptr %3, align 8, !tbaa !53
  %4 = add i32 %1, -1
  %or.cond3 = icmp ult i32 %4, 3
  br i1 %or.cond3, label %5, label %_ZNSt10unique_ptrIN4cvc58internal6theory11quantifiers5ieval13TermEvaluatorESt14default_deleteIS5_EE5resetEPS5_.exit

5:                                                ; preds = %2
  %6 = tail call noalias noundef nonnull dereferenceable(48) ptr @_Znwm(i64 noundef 48) #25
  %7 = getelementptr inbounds nuw i8, ptr %0, i64 8
  %8 = load ptr, ptr %7, align 8, !tbaa !128
  %9 = getelementptr inbounds nuw i8, ptr %0, i64 24
  %10 = load ptr, ptr %9, align 8, !tbaa !129
  %11 = getelementptr inbounds nuw i8, ptr %0, i64 32
  %12 = load ptr, ptr %11, align 8, !tbaa !130
  invoke void @_ZN4cvc58internal6theory11quantifiers5ieval21TermEvaluatorEntailedC1ERNS0_3EnvENS3_17TermEvaluatorModeERNS2_16QuantifiersStateERNS2_6TermDbE(ptr noundef nonnull align 8 dereferenceable(41) %6, ptr noundef nonnull align 8 dereferenceable(696) %8, i32 noundef %1, ptr noundef nonnull align 8 dereferenceable(376) %10, ptr noundef nonnull align 8 dereferenceable(1088) %12)
          to label %13 unwind label %19

13:                                               ; preds = %5
  %14 = getelementptr inbounds nuw i8, ptr %0, i64 48
  %15 = load ptr, ptr %14, align 8, !tbaa !101
  store ptr %6, ptr %14, align 8, !tbaa !101
  %.not.i.i = icmp eq ptr %15, null
  br i1 %.not.i.i, label %_ZNSt10unique_ptrIN4cvc58internal6theory11quantifiers5ieval13TermEvaluatorESt14default_deleteIS5_EE5resetEPS5_.exit, label %_ZNKSt14default_deleteIN4cvc58internal6theory11quantifiers5ieval13TermEvaluatorEEclEPS5_.exit.i.i

_ZNKSt14default_deleteIN4cvc58internal6theory11quantifiers5ieval13TermEvaluatorEEclEPS5_.exit.i.i: ; preds = %13
  %16 = load ptr, ptr %15, align 8, !tbaa !3
  %17 = getelementptr inbounds nuw i8, ptr %16, i64 8
  %18 = load ptr, ptr %17, align 8
  tail call void %18(ptr noundef nonnull align 8 dereferenceable(20) %15) #24
  br label %_ZNSt10unique_ptrIN4cvc58internal6theory11quantifiers5ieval13TermEvaluatorESt14default_deleteIS5_EE5resetEPS5_.exit

19:                                               ; preds = %5
  %20 = landingpad { ptr, i32 }
          cleanup
  tail call void @_ZdlPvm(ptr noundef nonnull %6, i64 noundef 48) #26
  resume { ptr, i32 } %20

_ZNSt10unique_ptrIN4cvc58internal6theory11quantifiers5ieval13TermEvaluatorESt14default_deleteIS5_EE5resetEPS5_.exit: ; preds = %_ZNKSt14default_deleteIN4cvc58internal6theory11quantifiers5ieval13TermEvaluatorEEclEPS5_.exit.i.i, %13, %2
  ret void
}